(dp0
S'BFett'
p1
(lp2
S'http://www.youtube.com/watch?v=_D0ZQPqeJkk'
p3
asS'test3'
p4
(lp5
S'http://www.youtube.com/watch?v=_D0ZQPqeJkk'
p6
asS'test2'
p7
(lp8
S'https://www.youtube.com/watch?v=1w7OgIMMRc4'
p9
asS'Jimmy42'
p10
(lp11
sS'Talvieno'
p12
(lp13
S'https://soundcloud.com/ellipsis_k/sparkle-samlion-memories'
p14
asS'DWMagus'
p15
(lp16
S'https://www.youtube.com/watch?v=M2VBmHOYpV8'
p17
aS'https://www.youtube.com/watch?v=m0AKJMGxwpE'
p18
asS'Cha0zz'
p19
(lp20
S'https://www.youtube.com/watch?v=6l6vqPUM_FE'
p21
aS'https://youtu.be/Wqn-7ZkYUYM'
p22
aS'http://www.youtube.com/watch?v=xwtdhWltSIg'
p23
aS'https://www.youtube.com/watch?v=1w7OgIMMRc4'
p24
aS'http://www.youtube.com/watch?v=6Ejga4kJUts'
p25
aS'https://www.youtube.com/watch?v=e8TZbze72Bc'
p26
aS'https://www.youtube.com/watch?v=etAIpkdhU9Q'
p27
aS'https://www.youtube.com/watch?v=pAgnJDJN4VA'
p28
aS'http://www.youtube.com/watch?v=hW2tGPvsR2E'
p29
aS'http://www.youtube.com/watch?v=xnKhsTXoKCI'
p30
aS'http://www.youtube.com/watch?v=Hce74cEAAaE'
p31
aS'https://www.youtube.com/watch?v=7mHe6FMs46o'
p32
aS'https://www.youtube.com/watch?v=6Ejga4kJUts'
p33
aS'http://www.youtube.com/watch?v=xo-J1wf2KHc'
p34
aS'http://www.youtube.com/watch?v=HgzGwKwLmgM'
p35
aS'https://www.youtube.com/watch?v=CrElT8XxptU'
p36
asS'mib_e8shtr'
p37
(lp38
S'https://www.youtube.com/watch?v=7mHe6FMs46o'
p39
aS'https://www.youtube.com/watch?v=qd4KMK8c3x0'
p40
asS'test'
p41
(lp42
S'https://www.youtube.com/watch?v=1w7OgIMMRc4'
p43
as.