(dp0
S'BFett'
p1
(lp2
S'http://www.youtube.com/watch?v=_D0ZQPqeJkk'
p3
asS'test3'
p4
(lp5
S'http://www.youtube.com/watch?v=_D0ZQPqeJkk'
p6
asS'test2'
p7
(lp8
S'https://www.youtube.com/watch?v=1w7OgIMMRc4'
p9
asS'Jimmy42'
p10
(lp11
sS'Talvieno'
p12
(lp13
S'https://soundcloud.com/ellipsis_k/sparkle-samlion-memories'
p14
asS'Cha0zz'
p15
(lp16
S'https://www.youtube.com/watch?v=6l6vqPUM_FE'
p17
aS'https://youtu.be/Wqn-7ZkYUYM'
p18
aS'http://www.youtube.com/watch?v=xwtdhWltSIg'
p19
aS'https://www.youtube.com/watch?v=1w7OgIMMRc4'
p20
aS'http://www.youtube.com/watch?v=6Ejga4kJUts'
p21
aS'https://www.youtube.com/watch?v=e8TZbze72Bc'
p22
aS'https://www.youtube.com/watch?v=etAIpkdhU9Q'
p23
aS'https://www.youtube.com/watch?v=pAgnJDJN4VA'
p24
aS'http://www.youtube.com/watch?v=hW2tGPvsR2E'
p25
aS'http://www.youtube.com/watch?v=xnKhsTXoKCI'
p26
aS'http://www.youtube.com/watch?v=Hce74cEAAaE'
p27
aS'https://www.youtube.com/watch?v=7mHe6FMs46o'
p28
aS'https://www.youtube.com/watch?v=6Ejga4kJUts'
p29
aS'http://www.youtube.com/watch?v=xo-J1wf2KHc'
p30
aS'http://www.youtube.com/watch?v=HgzGwKwLmgM'
p31
asS'mib_e8shtr'
p32
(lp33
S'https://www.youtube.com/watch?v=7mHe6FMs46o'
p34
aS'https://www.youtube.com/watch?v=qd4KMK8c3x0'
p35
asS'test'
p36
(lp37
S'https://www.youtube.com/watch?v=1w7OgIMMRc4'
p38
as.