(dp0
S'BFett'
p1
(lp2
S'http://www.youtube.com/watch?v=_D0ZQPqeJkk'
p3
asS'test3'
p4
(lp5
S'http://www.youtube.com/watch?v=_D0ZQPqeJkk'
p6
asS'test2'
p7
(lp8
S'https://www.youtube.com/watch?v=1w7OgIMMRc4'
p9
asS'Jimmy42'
p10
(lp11
sS'Talvieno'
p12
(lp13
S'https://soundcloud.com/ellipsis_k/sparkle-samlion-memories'
p14
asS'DWMagus'
p15
(lp16
S'https://www.youtube.com/watch?v=M2VBmHOYpV8'
p17
aS'https://www.youtube.com/watch?v=m0AKJMGxwpE'
p18
aS'https://www.youtube.com/watch?v=btPJPFnesV4'
p19
asS'Cha0zz'
p20
(lp21
S'https://www.youtube.com/watch?v=6l6vqPUM_FE'
p22
aS'https://youtu.be/Wqn-7ZkYUYM'
p23
aS'http://www.youtube.com/watch?v=xwtdhWltSIg'
p24
aS'https://www.youtube.com/watch?v=1w7OgIMMRc4'
p25
aS'http://www.youtube.com/watch?v=6Ejga4kJUts'
p26
aS'https://www.youtube.com/watch?v=e8TZbze72Bc'
p27
aS'https://www.youtube.com/watch?v=etAIpkdhU9Q'
p28
aS'https://www.youtube.com/watch?v=pAgnJDJN4VA'
p29
aS'http://www.youtube.com/watch?v=hW2tGPvsR2E'
p30
aS'http://www.youtube.com/watch?v=xnKhsTXoKCI'
p31
aS'http://www.youtube.com/watch?v=Hce74cEAAaE'
p32
aS'https://www.youtube.com/watch?v=7mHe6FMs46o'
p33
aS'https://www.youtube.com/watch?v=6Ejga4kJUts'
p34
aS'http://www.youtube.com/watch?v=xo-J1wf2KHc'
p35
aS'http://www.youtube.com/watch?v=HgzGwKwLmgM'
p36
aS'https://www.youtube.com/watch?v=CrElT8XxptU'
p37
aS'https://www.youtube.com/watch?v=etAIpkdhU9Q&index=4&list=RDgEPmA3USJdI'
p38
aS'https://www.youtube.com/watch?v=44XYEeD1A1U&index=5&list=RDgEPmA3USJdI'
p39
aS'https://www.youtube.com/watch?v=1w7OgIMMRc4&index=6&list=RDgEPmA3USJdI'
p40
aS'https://www.youtube.com/watch?v=btPJPFnesV4'
p41
aS'https://www.youtube.com/watch?v=qd4KMK8c3x0'
p42
aS'https://www.youtube.com/watch?v=Tj75Arhq5ho'
p43
asS'mib_e8shtr'
p44
(lp45
S'https://www.youtube.com/watch?v=7mHe6FMs46o'
p46
aS'https://www.youtube.com/watch?v=qd4KMK8c3x0'
p47
asS'test'
p48
(lp49
S'https://www.youtube.com/watch?v=1w7OgIMMRc4'
p50
as.