(lp0
S'https://www.youtube.com/watch?v=dQw4w9WgXcQ'
p1
aS'https://www.youtube.com/watch?v=BEwNrjvNiYs'
p2
aS'https://www.youtube.com/watch?v=eONClyzrhzI&feature=youtu.be'
p3
aS'https://www.youtube.com/watch?v=LMPWfHqVj40&feature=youtu.be'
p4
aS'https://www.youtube.com/watch?v=uFQrgNyiYwQ'
p5
aS'https://www.youtube.com/watch?v=qd4KMK8c3x0'
p6
aS'https://www.youtube.com/watch?v=MxHGyqobsbI&feature=youtu.be'
p7
aS'https://www.youtube.com/watch?v=RcZn2-bGXqQ'
p8
aS'https://youtu.be/jdYJf_ybyVo'
p9
aS'https://youtu.be/Wqn-7ZkYUYM'
p10
aS'https://www.youtube.com/watch?v=Z_DhNLCyVss'
p11
aS'https://www.youtube.com/watch?v=ihTABU6t8IU'
p12
aS'https://www.youtube.com/watch?v=VnT7pT6zCcA&feature=youtu.be'
p13
aS'https://www.youtube.com/watch?v=zNcsBf2GCFc'
p14
aS'https://www.youtube.com/watch?v=pYb8ux67W2E'
p15
aS'https://www.youtube.com/watch?v=7ztvgT4aV-8'
p16
aS'https://www.youtube.com/watch?v=iC65ufGUvKM'
p17
aS'https://www.youtube.com/watch?v=XAg5KjnAhuU'
p18
aS'https://www.youtube.com/watch?v=3vC5TsSyNjU'
p19
aS'https://www.youtube.com/watch?v=-F7A24f6gNc'
p20
aS'https://www.youtube.com/watch?v=otCpCn0l4Wo'
p21
aS'https://www.youtube.com/watch?v=eM8Ss28zjcE'
p22
aS'https://www.youtube.com/watch?v=hTWKbfoikeg'
p23
aS'https://www.youtube.com/watch?v=6Ejga4kJUts'
p24
aS'https://www.youtube.com/watch?v=xwtdhWltSIg'
p25
aS'http://www.youtube.com/watch?v=9jK-NcRmVcw'
p26
aS'http://www.youtube.com/watch?v=xo-J1wf2KHc'
p27
aS'http://www.youtube.com/watch?v=PfAWReBmxEs'
p28
aS'https://www.youtube.com/watch?v=gEPmA3USJdI'
p29
aS'https://www.youtube.com/watch?v=pAgnJDJN4VA&index=2&list=RDgEPmA3USJdI'
p30
aS'https://www.youtube.com/watch?v=v2AC41dglnM&index=4&list=RDgEPmA3USJdI'
p31
aS'https://www.youtube.com/watch?v=-dX5Yk4pE5w'
p32
aS'https://www.youtube.com/watch?v=1w7OgIMMRc4'
p33
aS'https://www.youtube.com/watch?v=Rbm6GXllBiw'
p34
aS'https://www.youtube.com/watch?v=e8TZbze72Bc'
p35
aS'http://www.youtube.com/watch?v=_D0ZQPqeJkk'
p36
aS'https://www.youtube.com/watch?v=etAIpkdhU9Q'
p37
aS'https://www.youtube.com/watch?v=pAgnJDJN4VA'
p38
aS'http://www.youtube.com/watch?v=hW2tGPvsR2E'
p39
aS'http://www.youtube.com/watch?v=xnKhsTXoKCI'
p40
aS'http://www.youtube.com/watch?v=Hce74cEAAaE'
p41
aS'https://www.youtube.com/watch?v=7mHe6FMs46o'
p42
aS'https://youtu.be/ifgMtNQAJlU'
p43
aS'http://www.youtube.com/watch?v=jofNR_WkoCE'
p44
aS'https://www.youtube.com/watch?v=eT2JbSayTLk'
p45
aS'http://www.youtube.com/watch?v=CD-E-LDc384'
p46
aS'http://www.youtube.com/watch?v=HgzGwKwLmgM'
p47
aS'http://www.youtube.com/watch?v=ST86JM1RPl0'
p48
aS'http://www.youtube.com/watch?v=Ye7FKc1JQe4'
p49
a.