(lp0
S'https://www.youtube.com/watch?v=dQw4w9WgXcQ'
p1
aS'https://www.youtube.com/watch?v=BEwNrjvNiYs'
p2
aS'https://www.youtube.com/watch?v=eONClyzrhzI&feature=youtu.be'
p3
aS'https://www.youtube.com/watch?v=LMPWfHqVj40&feature=youtu.be'
p4
aS'https://www.youtube.com/watch?v=uFQrgNyiYwQ'
p5
aS'https://www.youtube.com/watch?v=qd4KMK8c3x0'
p6
aS'https://www.youtube.com/watch?v=MxHGyqobsbI&feature=youtu.be'
p7
aS'https://www.youtube.com/watch?v=RcZn2-bGXqQ'
p8
aS'https://youtu.be/jdYJf_ybyVo'
p9
aS'https://youtu.be/Wqn-7ZkYUYM'
p10
aS'https://www.youtube.com/watch?v=Z_DhNLCyVss'
p11
aS'https://www.youtube.com/watch?v=ihTABU6t8IU'
p12
aS'https://www.youtube.com/watch?v=zNcsBf2GCFc'
p13
aS'https://www.youtube.com/watch?v=pYb8ux67W2E'
p14
aS'https://www.youtube.com/watch?v=7ztvgT4aV-8'
p15
aS'https://www.youtube.com/watch?v=iC65ufGUvKM'
p16
aS'https://www.youtube.com/watch?v=XAg5KjnAhuU'
p17
aS'https://www.youtube.com/watch?v=3vC5TsSyNjU'
p18
aS'https://www.youtube.com/watch?v=-F7A24f6gNc'
p19
aS'https://www.youtube.com/watch?v=otCpCn0l4Wo'
p20
aS'https://www.youtube.com/watch?v=eM8Ss28zjcE'
p21
aS'https://www.youtube.com/watch?v=hTWKbfoikeg'
p22
aS'https://www.youtube.com/watch?v=6Ejga4kJUts'
p23
aS'https://www.youtube.com/watch?v=xwtdhWltSIg'
p24
aS'http://www.youtube.com/watch?v=9jK-NcRmVcw'
p25
aS'http://www.youtube.com/watch?v=xo-J1wf2KHc'
p26
aS'http://www.youtube.com/watch?v=PfAWReBmxEs'
p27
aS'https://www.youtube.com/watch?v=gEPmA3USJdI'
p28
aS'https://www.youtube.com/watch?v=pAgnJDJN4VA&index=2&list=RDgEPmA3USJdI'
p29
aS'https://www.youtube.com/watch?v=v2AC41dglnM&index=4&list=RDgEPmA3USJdI'
p30
aS'https://www.youtube.com/watch?v=-dX5Yk4pE5w'
p31
aS'https://www.youtube.com/watch?v=1w7OgIMMRc4'
p32
aS'https://www.youtube.com/watch?v=Rbm6GXllBiw'
p33
aS'https://www.youtube.com/watch?v=e8TZbze72Bc'
p34
aS'http://www.youtube.com/watch?v=_D0ZQPqeJkk'
p35
aS'https://www.youtube.com/watch?v=etAIpkdhU9Q'
p36
aS'https://www.youtube.com/watch?v=pAgnJDJN4VA'
p37
aS'http://www.youtube.com/watch?v=hW2tGPvsR2E'
p38
aS'http://www.youtube.com/watch?v=xnKhsTXoKCI'
p39
aS'http://www.youtube.com/watch?v=Hce74cEAAaE'
p40
aS'https://www.youtube.com/watch?v=7mHe6FMs46o'
p41
aS'https://youtu.be/ifgMtNQAJlU'
p42
aS'http://www.youtube.com/watch?v=jofNR_WkoCE'
p43
aS'https://www.youtube.com/watch?v=eT2JbSayTLk'
p44
aS'http://www.youtube.com/watch?v=CD-E-LDc384'
p45
aS'http://www.youtube.com/watch?v=HgzGwKwLmgM'
p46
aS'http://www.youtube.com/watch?v=ST86JM1RPl0'
p47
aS'http://www.youtube.com/watch?v=Ye7FKc1JQe4'
p48
aS'https://www.youtube.com/watch?v=CrElT8XxptU'
p49
aS'https://www.youtube.com/watch?v=M2VBmHOYpV8'
p50
aS'https://www.youtube.com/watch?v=etAIpkdhU9Q&index=4&list=RDgEPmA3USJdI'
p51
aS'https://www.youtube.com/watch?v=44XYEeD1A1U&index=5&list=RDgEPmA3USJdI'
p52
aS'https://www.youtube.com/watch?v=1w7OgIMMRc4&index=6&list=RDgEPmA3USJdI'
p53
aS'https://www.youtube.com/watch?v=btPJPFnesV4'
p54
aS'http://www.youtube.com/watch?v=laRyswIO_-g'
p55
aS'http://www.youtube.com/watch?v=cohxgOVcK8E'
p56
aS'https://www.youtube.com/watch?v=aGSKrC7dGcY'
p57
aS'https://www.youtube.com/watch?v=Tj75Arhq5ho'
p58
aS'https://www.youtube.com/watch?v=wCDIYvFmgW8'
p59
aS'https://www.youtube.com/watch?v=mXJ17nN3kZ8'
p60
aS'http://www.youtube.com/watch?v=ZBR2G-iI3-I'
p61
aS'http://www.youtube.com/watch?v=ZkW-K5RQdzo'
p62
aS'https://www.youtube.com/watch?v=WxnN05vOuSM'
p63
aS'http://www.youtube.com/watch?v=ZDCs7ijNUVM'
p64
aS'http://www.youtube.com/watch?v=4xmckWVPRaI'
p65
aS'http://www.youtube.com/watch?v=YR5ApYxkU-U'
p66
aS'https://www.youtube.com/watch?v=m9We2XsVZfc'
p67
aS'http://www.youtube.com/watch?v=ClQcUyhoxTg'
p68
aS'https://www.youtube.com/watch?v=FpXHzNYJJL8'
p69
aS'https://www.youtube.com/watch?v=6yP1tcy9a10'
p70
aS'http://www.youtube.com/watch?v=9fXjWBpYlp0'
p71
aS'http://www.youtube.com/watch?v=JSUIQgEVDM4'
p72
a.